; ModuleID = 'source-C-CXX/39/2751.c'
source_filename = "source-C-CXX/39/2751.c"
target datalayout = "e-m:e-p270:32:32-p271:32:32-p272:64:64-i64:64-f80:128-n8:16:32:64-S128"
target triple = "x86_64-pc-linux-gnu"

@.str = private unnamed_addr constant [16 x i8] c"%lf%lf%lf%lf%lf\00", align 1
@.str.1 = private unnamed_addr constant [14 x i8] c"Invalid input\00", align 1
@.str.2 = private unnamed_addr constant [5 x i8] c"%.4f\00", align 1

; Function Attrs: nofree nounwind sspstrong uwtable
define dso_local void @main() local_unnamed_addr #0 {
  %1 = alloca double, align 8
  %2 = alloca double, align 8
  %3 = alloca double, align 8
  %4 = alloca double, align 8
  %5 = alloca double, align 8
  %6 = bitcast double* %1 to i8*
  call void @llvm.lifetime.start.p0i8(i64 8, i8* nonnull %6) #4
  %7 = bitcast double* %2 to i8*
  call void @llvm.lifetime.start.p0i8(i64 8, i8* nonnull %7) #4
  %8 = bitcast double* %3 to i8*
  call void @llvm.lifetime.start.p0i8(i64 8, i8* nonnull %8) #4
  %9 = bitcast double* %4 to i8*
  call void @llvm.lifetime.start.p0i8(i64 8, i8* nonnull %9) #4
  %10 = bitcast double* %5 to i8*
  call void @llvm.lifetime.start.p0i8(i64 8, i8* nonnull %10) #4
  %11 = call i32 (i8*, ...) @__isoc99_scanf(i8* getelementptr inbounds ([16 x i8], [16 x i8]* @.str, i64 0, i64 0), double* nonnull %1, double* nonnull %2, double* nonnull %3, double* nonnull %4, double* nonnull %5)
  %12 = load double, double* %5, align 8, !tbaa !5
  %13 = fmul double %12, 0x3F91DF469D353918
  %14 = fmul double %13, 5.000000e-01
  store double %14, double* %5, align 8, !tbaa !5
  %15 = load double, double* %1, align 8, !tbaa !5
  %16 = load double, double* %2, align 8, !tbaa !5
  %17 = fadd double %15, %16
  %18 = load double, double* %3, align 8, !tbaa !5
  %19 = fadd double %17, %18
  %20 = load double, double* %4, align 8, !tbaa !5
  %21 = fadd double %19, %20
  %22 = fmul double %21, 5.000000e-01
  %23 = fsub double %22, %15
  %24 = fsub double %22, %16
  %25 = fmul double %23, %24
  %26 = fsub double %22, %18
  %27 = fmul double %26, %25
  %28 = fsub double %22, %20
  %29 = fmul double %28, %27
  %30 = fmul double %15, %16
  %31 = fmul double %30, %18
  %32 = fmul double %31, %20
  %33 = call double @cos(double %14) #4
  %34 = fmul double %32, %33
  %35 = load double, double* %5, align 8, !tbaa !5
  %36 = call double @cos(double %35) #4
  %37 = fmul double %34, %36
  %38 = fsub double %29, %37
  %39 = call double @sqrt(double %38) #4
  %40 = load double, double* %1, align 8, !tbaa !5
  %41 = fsub double %22, %40
  %42 = load double, double* %2, align 8, !tbaa !5
  %43 = fsub double %22, %42
  %44 = fmul double %41, %43
  %45 = load double, double* %3, align 8, !tbaa !5
  %46 = fsub double %22, %45
  %47 = fmul double %44, %46
  %48 = load double, double* %4, align 8, !tbaa !5
  %49 = fsub double %22, %48
  %50 = fmul double %47, %49
  %51 = fmul double %40, %42
  %52 = fmul double %51, %45
  %53 = fmul double %52, %48
  %54 = load double, double* %5, align 8, !tbaa !5
  %55 = call double @cos(double %54) #4
  %56 = fmul double %53, %55
  %57 = load double, double* %5, align 8, !tbaa !5
  %58 = call double @cos(double %57) #4
  %59 = fmul double %56, %58
  %60 = fsub double %50, %59
  %61 = fcmp olt double %60, 0.000000e+00
  br i1 %61, label %62, label %64

62:                                               ; preds = %0
  %63 = call i32 (i8*, ...) @printf(i8* nonnull dereferenceable(1) getelementptr inbounds ([14 x i8], [14 x i8]* @.str.1, i64 0, i64 0))
  br label %66

64:                                               ; preds = %0
  %65 = call i32 (i8*, ...) @printf(i8* nonnull dereferenceable(1) getelementptr inbounds ([5 x i8], [5 x i8]* @.str.2, i64 0, i64 0), double %39)
  br label %66

66:                                               ; preds = %64, %62
  call void @llvm.lifetime.end.p0i8(i64 8, i8* nonnull %10) #4
  call void @llvm.lifetime.end.p0i8(i64 8, i8* nonnull %9) #4
  call void @llvm.lifetime.end.p0i8(i64 8, i8* nonnull %8) #4
  call void @llvm.lifetime.end.p0i8(i64 8, i8* nonnull %7) #4
  call void @llvm.lifetime.end.p0i8(i64 8, i8* nonnull %6) #4
  ret void
}

; Function Attrs: argmemonly mustprogress nofree nosync nounwind willreturn
declare void @llvm.lifetime.start.p0i8(i64 immarg, i8* nocapture) #1

; Function Attrs: nofree nounwind
declare noundef i32 @__isoc99_scanf(i8* nocapture noundef readonly, ...) local_unnamed_addr #2

; Function Attrs: mustprogress nofree nounwind willreturn
declare double @sqrt(double) local_unnamed_addr #3

; Function Attrs: mustprogress nofree nounwind willreturn
declare double @cos(double) local_unnamed_addr #3

; Function Attrs: nofree nounwind
declare noundef i32 @printf(i8* nocapture noundef readonly, ...) local_unnamed_addr #2

; Function Attrs: argmemonly mustprogress nofree nosync nounwind willreturn
declare void @llvm.lifetime.end.p0i8(i64 immarg, i8* nocapture) #1


!llvm.module.flags = !{!0, !1, !2, !3}
!llvm.ident = !{!4}

!0 = !{i32 1, !"wchar_size", i32 4}
!1 = !{i32 7, !"PIC Level", i32 2}
!2 = !{i32 7, !"PIE Level", i32 2}
!3 = !{i32 7, !"uwtable", i32 1}
!4 = !{!"clang version 13.0.0"}
!5 = !{!6, !6, i64 0}
!6 = !{!"double", !7, i64 0}
!7 = !{!"omnipotent char", !8, i64 0}
!8 = !{!"Simple C/C++ TBAA"}
